libgumbo.so:clear_stack_to_table_body_context
libgumbo.so:clone_node
libgumbo.so:consume_char_ref
libgumbo.so:get_appropriate_insertion_location
libgumbo.so:gumbo_add_error
libgumbo.so:gumbo_caret_diagnostic_to_string
libgumbo.so:gumbo_copy_stringz
libgumbo.so:gumbo_debug
libgumbo.so:gumbo_destroy_attribute
libgumbo.so:gumbo_destroy_errors
libgumbo.so:gumbo_destroy_node
libgumbo.so:gumbo_destroy_output
libgumbo.so:gumbo_error_destroy
libgumbo.so:gumbo_error_to_string
libgumbo.so:gumbo_get_attribute
libgumbo.so:gumbo_init_errors
libgumbo.so:gumbo_lex
libgumbo.so:gumbo_normalize_svg_tagname
libgumbo.so:gumbo_normalized_tagname
libgumbo.so:gumbo_parse
libgumbo.so:gumbo_parse_with_options
libgumbo.so:gumbo_parser_allocate
libgumbo.so:gumbo_parser_deallocate
libgumbo.so:gumbo_print_caret_diagnostic
libgumbo.so:gumbo_string_buffer_append_codepoint
libgumbo.so:gumbo_string_buffer_append_string
libgumbo.so:gumbo_string_buffer_clear
libgumbo.so:gumbo_string_buffer_destroy
libgumbo.so:gumbo_string_buffer_init
libgumbo.so:gumbo_string_buffer_reserve
libgumbo.so:gumbo_string_buffer_to_string
libgumbo.so:gumbo_string_copy
libgumbo.so:gumbo_string_equals
libgumbo.so:gumbo_string_equals_ignore_case
libgumbo.so:gumbo_tag_enum
libgumbo.so:gumbo_tag_from_original_text
libgumbo.so:gumbo_tagn_enum
libgumbo.so:gumbo_token_destroy
libgumbo.so:gumbo_tokenizer_set_is_current_node_foreign
libgumbo.so:gumbo_tokenizer_set_state
libgumbo.so:gumbo_tokenizer_state_destroy
libgumbo.so:gumbo_tokenizer_state_init
libgumbo.so:gumbo_vector_add
libgumbo.so:gumbo_vector_destroy
libgumbo.so:gumbo_vector_index_of
libgumbo.so:gumbo_vector_init
libgumbo.so:gumbo_vector_insert_at
libgumbo.so:gumbo_vector_pop
libgumbo.so:gumbo_vector_remove
libgumbo.so:gumbo_vector_remove_at
libgumbo.so:utf8_is_invalid_code_point
libgumbo.so:utf8iterator_current
libgumbo.so:utf8iterator_fill_error_at_mark
libgumbo.so:utf8iterator_get_char_pointer
libgumbo.so:utf8iterator_get_end_pointer
libgumbo.so:utf8iterator_get_position
libgumbo.so:utf8iterator_init
libgumbo.so:utf8iterator_mark
libgumbo.so:utf8iterator_maybe_consume_match
libgumbo.so:utf8iterator_next
libgumbo.so:utf8iterator_reset
liblitehtml.so:_ZN8litehtml10backgroundC1ERKS0_
liblitehtml.so:_ZN8litehtml10backgroundC1Ev
liblitehtml.so:_ZN8litehtml10backgroundC2ERKS0_
liblitehtml.so:_ZN8litehtml10backgroundC2Ev
liblitehtml.so:_ZN8litehtml10backgroundD1Ev
liblitehtml.so:_ZN8litehtml10backgroundD2Ev
liblitehtml.so:_ZN8litehtml10backgroundaSERKS0_
liblitehtml.so:_ZN8litehtml10css_length10fromStringERKNSt7__cxx1112basic_stringIcSt11char_traitsIcESaIcEEES8_i
liblitehtml.so:_ZN8litehtml10el_comment8get_textERNSt7__cxx1112basic_stringIcSt11char_traitsIcESaIcEEE
liblitehtml.so:_ZN8litehtml10el_comment8set_dataEPKc
liblitehtml.so:_ZN8litehtml10el_commentC1ERKSt10shared_ptrINS_8documentEE
liblitehtml.so:_ZN8litehtml10el_commentC2ERKSt10shared_ptrINS_8documentEE
liblitehtml.so:_ZN8litehtml10el_commentD0Ev
liblitehtml.so:_ZN8litehtml10el_commentD1Ev
liblitehtml.so:_ZN8litehtml10el_commentD2Ev
liblitehtml.so:_ZN8litehtml10table_grid13is_rowspannedEii
liblitehtml.so:_ZN8litehtml10table_grid16calc_rows_heightEii
liblitehtml.so:_ZN8litehtml10table_grid16calc_table_widthEibRiS1_
liblitehtml.so:_ZN8litehtml10table_grid16distribute_widthEiii
liblitehtml.so:_ZN8litehtml10table_grid16distribute_widthEiiiPNS_21table_column_accessorE
liblitehtml.so:_ZN8litehtml10table_grid20distribute_max_widthEiii
liblitehtml.so:_ZN8litehtml10table_grid20distribute_min_widthEiii
liblitehtml.so:_ZN8litehtml10table_grid23calc_vertical_positionsERNS_7marginsENS_15border_collapseEi
liblitehtml.so:_ZN8litehtml10table_grid25calc_horizontal_positionsERNS_7marginsENS_15border_collapseEi
liblitehtml.so:_ZN8litehtml10table_grid4cellEii
liblitehtml.so:_ZN8litehtml10table_grid5clearEv
liblitehtml.so:_ZN8litehtml10table_grid6finishEv
liblitehtml.so:_ZN8litehtml10table_grid8add_cellERSt10shared_ptrINS_7elementEE
liblitehtml.so:_ZN8litehtml10table_grid9begin_rowERSt10shared_ptrINS_7elementEE
liblitehtml.so:_ZN8litehtml11join_stringERNSt7__cxx1112basic_stringIcSt11char_traitsIcESaIcEEERKSt6vectorIS5_SaIS5_EERKS5_
liblitehtml.so:_ZN8litehtml11media_query18create_from_stringERKNSt7__cxx1112basic_stringIcSt11char_traitsIcESaIcEEERKSt10shared_ptrINS_8documentEE
liblitehtml.so:_ZN8litehtml11media_queryC1ERKS0_
liblitehtml.so:_ZN8litehtml11media_queryC1Ev
liblitehtml.so:_ZN8litehtml11media_queryC2ERKS0_
liblitehtml.so:_ZN8litehtml11media_queryC2Ev
liblitehtml.so:_ZN8litehtml11value_indexERKNSt7__cxx1112basic_stringIcSt11char_traitsIcESaIcEEES7_ic
liblitehtml.so:_ZN8litehtml12css_selector16calc_specificityEv
liblitehtml.so:_ZN8litehtml12css_selector5parseERKNSt7__cxx1112basic_stringIcSt11char_traitsIcESaIcEEE
liblitehtml.so:_ZN8litehtml12split_stringERKNSt7__cxx1112basic_stringIcSt11char_traitsIcESaIcEEERSt6vectorIS5_SaIS5_EES7_S7_S7_
liblitehtml.so:_ZN8litehtml13utf8_to_wchar8get_charEv
liblitehtml.so:_ZN8litehtml13utf8_to_wcharC1EPKc
liblitehtml.so:_ZN8litehtml13utf8_to_wcharC2EPKc
liblitehtml.so:_ZN8litehtml13value_in_listERKNSt7__cxx1112basic_stringIcSt11char_traitsIcESaIcEEES7_c
liblitehtml.so:_ZN8litehtml13wchar_to_utf8C1ERKNSt7__cxx1112basic_stringIwSt11char_traitsIwESaIwEEE
liblitehtml.so:_ZN8litehtml13wchar_to_utf8C2ERKNSt7__cxx1112basic_stringIwSt11char_traitsIwESaIwEEE
liblitehtml.so:_ZN8litehtml15go_inside_table6selectERKSt10shared_ptrINS_7elementEE
liblitehtml.so:_ZN8litehtml16background_paintC1ERKS0_
liblitehtml.so:_ZN8litehtml16background_paintC1Ev
liblitehtml.so:_ZN8litehtml16background_paintC2ERKS0_
liblitehtml.so:_ZN8litehtml16background_paintC2Ev
liblitehtml.so:_ZN8litehtml16background_paintaSERKNS_10backgroundE
liblitehtml.so:_ZN8litehtml16go_inside_inline6selectERKSt10shared_ptrINS_7elementEE
liblitehtml.so:_ZN8litehtml16media_query_list18create_from_stringERKNSt7__cxx1112basic_stringIcSt11char_traitsIcESaIcEEERKSt10shared_ptrINS_8documentEE
liblitehtml.so:_ZN8litehtml16media_query_list20apply_media_featuresERKNS_14media_featuresE
liblitehtml.so:_ZN8litehtml17elements_iterator4nextEb
liblitehtml.so:_ZN8litehtml17elements_iterator8next_idxEv
liblitehtml.so:_ZN8litehtml18find_close_bracketERKNSt7__cxx1112basic_stringIcSt11char_traitsIcESaIcEEEmcc
liblitehtml.so:_ZN8litehtml19table_rows_selector6selectERKSt10shared_ptrINS_7elementEE
liblitehtml.so:_ZN8litehtml20css_element_selector5parseERKNSt7__cxx1112basic_stringIcSt11char_traitsIcESaIcEEE
liblitehtml.so:_ZN8litehtml20el_before_after_base12add_functionERKNSt7__cxx1112basic_stringIcSt11char_traitsIcESaIcEEES8_
liblitehtml.so:_ZN8litehtml20el_before_after_base14convert_escapeEPKc
liblitehtml.so:_ZN8litehtml20el_before_after_base16apply_stylesheetERKNS_3cssE
liblitehtml.so:_ZN8litehtml20el_before_after_base8add_textERKNSt7__cxx1112basic_stringIcSt11char_traitsIcESaIcEEE
liblitehtml.so:_ZN8litehtml20el_before_after_base9add_styleERKNS_5styleE
liblitehtml.so:_ZN8litehtml20el_before_after_baseC1ERKSt10shared_ptrINS_8documentEEb
liblitehtml.so:_ZN8litehtml20el_before_after_baseC2ERKSt10shared_ptrINS_8documentEEb
liblitehtml.so:_ZN8litehtml20el_before_after_baseD0Ev
liblitehtml.so:_ZN8litehtml20el_before_after_baseD1Ev
liblitehtml.so:_ZN8litehtml20el_before_after_baseD2Ev
liblitehtml.so:_ZN8litehtml20table_cells_selector6selectERKSt10shared_ptrINS_7elementEE
liblitehtml.so:_ZN8litehtml27table_column_accessor_width3getERNS_12table_columnE
liblitehtml.so:_ZN8litehtml31table_column_accessor_max_width3getERNS_12table_columnE
liblitehtml.so:_ZN8litehtml31table_column_accessor_min_width3getERNS_12table_columnE
liblitehtml.so:_ZN8litehtml3css12parse_atruleERKNSt7__cxx1112basic_stringIcSt11char_traitsIcESaIcEEEPKcRKSt10shared_ptrINS_8documentEERKSB_INS_16media_query_listEE
liblitehtml.so:_ZN8litehtml3css13parse_css_urlERKNSt7__cxx1112basic_stringIcSt11char_traitsIcESaIcEEERS6_
liblitehtml.so:_ZN8litehtml3css14sort_selectorsEv
liblitehtml.so:_ZN8litehtml3css15parse_selectorsERKNSt7__cxx1112basic_stringIcSt11char_traitsIcESaIcEEERKSt10shared_ptrINS_5styleEERKS9_INS_16media_query_listEE
liblitehtml.so:_ZN8litehtml3css16parse_stylesheetEPKcS2_RKSt10shared_ptrINS_8documentEERKS3_INS_16media_query_listEE
liblitehtml.so:_ZN8litehtml4trimERNSt7__cxx1112basic_stringIcSt11char_traitsIcESaIcEEE
liblitehtml.so:_ZN8litehtml5el_li6renderEiiib
liblitehtml.so:_ZN8litehtml5el_liC1ERKSt10shared_ptrINS_8documentEE
liblitehtml.so:_ZN8litehtml5el_liC2ERKSt10shared_ptrINS_8documentEE
liblitehtml.so:_ZN8litehtml5el_liD0Ev
liblitehtml.so:_ZN8litehtml5el_liD1Ev
liblitehtml.so:_ZN8litehtml5el_liD2Ev
liblitehtml.so:_ZN8litehtml5el_td16parse_attributesEv
liblitehtml.so:_ZN8litehtml5el_tdC1ERKSt10shared_ptrINS_8documentEE
liblitehtml.so:_ZN8litehtml5el_tdC2ERKSt10shared_ptrINS_8documentEE
liblitehtml.so:_ZN8litehtml5el_tdD0Ev
liblitehtml.so:_ZN8litehtml5el_tdD1Ev
liblitehtml.so:_ZN8litehtml5el_tdD2Ev
liblitehtml.so:_ZN8litehtml5el_tr16get_inline_boxesERSt6vectorINS_8positionESaIS2_EE
liblitehtml.so:_ZN8litehtml5el_tr16parse_attributesEv
liblitehtml.so:_ZN8litehtml5el_trC1ERKSt10shared_ptrINS_8documentEE
liblitehtml.so:_ZN8litehtml5el_trC2ERKSt10shared_ptrINS_8documentEE
liblitehtml.so:_ZN8litehtml5el_trD0Ev
liblitehtml.so:_ZN8litehtml5el_trD1Ev
liblitehtml.so:_ZN8litehtml5el_trD2Ev
liblitehtml.so:_ZN8litehtml5lcaseERNSt7__cxx1112basic_stringIcSt11char_traitsIcESaIcEEE
liblitehtml.so:_ZN8litehtml5style12add_propertyEPKcS2_S2_b
liblitehtml.so:_ZN8litehtml5style14parse_propertyERKNSt7__cxx1112basic_stringIcSt11char_traitsIcESaIcEEEPKc
liblitehtml.so:_ZN8litehtml5style15remove_propertyERKNSt7__cxx1112basic_stringIcSt11char_traitsIcESaIcEEEb
liblitehtml.so:_ZN8litehtml5style16parse_short_fontERKNSt7__cxx1112basic_stringIcSt11char_traitsIcESaIcEEEb
liblitehtml.so:_ZN8litehtml5style18parse_short_borderERKNSt7__cxx1112basic_stringIcSt11char_traitsIcESaIcEEES8_b
liblitehtml.so:_ZN8litehtml5style19add_parsed_propertyERKNSt7__cxx1112basic_stringIcSt11char_traitsIcESaIcEEES8_b
liblitehtml.so:_ZN8litehtml5style22parse_short_backgroundERKNSt7__cxx1112basic_stringIcSt11char_traitsIcESaIcEEEPKcb
liblitehtml.so:_ZN8litehtml5style5parseEPKcS2_
liblitehtml.so:_ZN8litehtml5style7combineERKS0_
liblitehtml.so:_ZN8litehtml5styleC1ERKS0_
liblitehtml.so:_ZN8litehtml5styleC1Ev
liblitehtml.so:_ZN8litehtml5styleC2ERKS0_
liblitehtml.so:_ZN8litehtml5styleC2Ev
liblitehtml.so:_ZN8litehtml5styleD0Ev
liblitehtml.so:_ZN8litehtml5styleD1Ev
liblitehtml.so:_ZN8litehtml5styleD2Ev
liblitehtml.so:_ZN8litehtml6el_div16parse_attributesEv
liblitehtml.so:_ZN8litehtml6el_divC1ERKSt10shared_ptrINS_8documentEE
liblitehtml.so:_ZN8litehtml6el_divC2ERKSt10shared_ptrINS_8documentEE
liblitehtml.so:_ZN8litehtml6el_divD0Ev
liblitehtml.so:_ZN8litehtml6el_divD1Ev
liblitehtml.so:_ZN8litehtml6el_divD2Ev
liblitehtml.so:_ZN8litehtml7context22load_master_stylesheetEPKc
liblitehtml.so:_ZN8litehtml7el_base16parse_attributesEv
liblitehtml.so:_ZN8litehtml7el_baseC1ERKSt10shared_ptrINS_8documentEE
liblitehtml.so:_ZN8litehtml7el_baseC2ERKSt10shared_ptrINS_8documentEE
liblitehtml.so:_ZN8litehtml7el_baseD0Ev
liblitehtml.so:_ZN8litehtml7el_baseD1Ev
liblitehtml.so:_ZN8litehtml7el_baseD2Ev
liblitehtml.so:_ZN8litehtml7el_bodyC1ERKSt10shared_ptrINS_8documentEE
liblitehtml.so:_ZN8litehtml7el_bodyC2ERKSt10shared_ptrINS_8documentEE
liblitehtml.so:_ZN8litehtml7el_bodyD0Ev
liblitehtml.so:_ZN8litehtml7el_bodyD1Ev
liblitehtml.so:_ZN8litehtml7el_bodyD2Ev
liblitehtml.so:_ZN8litehtml7el_font16parse_attributesEv
liblitehtml.so:_ZN8litehtml7el_fontC1ERKSt10shared_ptrINS_8documentEE
liblitehtml.so:_ZN8litehtml7el_fontC2ERKSt10shared_ptrINS_8documentEE
liblitehtml.so:_ZN8litehtml7el_fontD0Ev
liblitehtml.so:_ZN8litehtml7el_fontD1Ev
liblitehtml.so:_ZN8litehtml7el_fontD2Ev
liblitehtml.so:_ZN8litehtml7el_link16parse_attributesEv
liblitehtml.so:_ZN8litehtml7el_linkC1ERKSt10shared_ptrINS_8documentEE
liblitehtml.so:_ZN8litehtml7el_linkC2ERKSt10shared_ptrINS_8documentEE
liblitehtml.so:_ZN8litehtml7el_linkD0Ev
liblitehtml.so:_ZN8litehtml7el_linkD1Ev
liblitehtml.so:_ZN8litehtml7el_linkD2Ev
liblitehtml.so:_ZN8litehtml7el_para16parse_attributesEv
liblitehtml.so:_ZN8litehtml7el_paraC1ERKSt10shared_ptrINS_8documentEE
liblitehtml.so:_ZN8litehtml7el_paraC2ERKSt10shared_ptrINS_8documentEE
liblitehtml.so:_ZN8litehtml7el_paraD0Ev
liblitehtml.so:_ZN8litehtml7el_paraD1Ev
liblitehtml.so:_ZN8litehtml7el_paraD2Ev
liblitehtml.so:_ZN8litehtml7el_text12parse_stylesEb
liblitehtml.so:_ZN8litehtml7el_text13get_base_lineEv
liblitehtml.so:_ZN8litehtml7el_text16get_content_sizeERNS_4sizeEi
liblitehtml.so:_ZN8litehtml7el_text18get_style_propertyEPKcbS2_
liblitehtml.so:_ZN8litehtml7el_text4drawEmiiPKNS_8positionE
liblitehtml.so:_ZN8litehtml7el_text8get_fontEPNS_12font_metricsE
liblitehtml.so:_ZN8litehtml7el_text8get_textERNSt7__cxx1112basic_stringIcSt11char_traitsIcESaIcEEE
liblitehtml.so:_ZN8litehtml7el_textC1EPKcRKSt10shared_ptrINS_8documentEE
liblitehtml.so:_ZN8litehtml7el_textC2EPKcRKSt10shared_ptrINS_8documentEE
liblitehtml.so:_ZN8litehtml7el_textD0Ev
liblitehtml.so:_ZN8litehtml7el_textD1Ev
liblitehtml.so:_ZN8litehtml7el_textD2Ev
liblitehtml.so:_ZN8litehtml7element10get_cursorEv
liblitehtml.so:_ZN8litehtml7element10select_allERKNS_12css_selectorE
liblitehtml.so:_ZN8litehtml7element10select_allERKNS_12css_selectorERSt6vectorISt10shared_ptrIS0_ESaIS6_EE
liblitehtml.so:_ZN8litehtml7element10select_allERKNSt7__cxx1112basic_stringIcSt11char_traitsIcESaIcEEE
liblitehtml.so:_ZN8litehtml7element10select_oneERKNS_12css_selectorE
liblitehtml.so:_ZN8litehtml7element10select_oneERKNSt7__cxx1112basic_stringIcSt11char_traitsIcESaIcEEE
liblitehtml.so:_ZN8litehtml7element11appendChildERKSt10shared_ptrIS0_E
liblitehtml.so:_ZN8litehtml7element11removeChildERKSt10shared_ptrIS0_E
liblitehtml.so:_ZN8litehtml7element11set_tagNameEPKc
liblitehtml.so:_ZN8litehtml7element12find_siblingERKSt10shared_ptrIS0_ERKNS_12css_selectorEbPb
liblitehtml.so:_ZN8litehtml7element12parse_stylesEb
liblitehtml.so:_ZN8litehtml7element13calc_outlinesEi
liblitehtml.so:_ZN8litehtml7element13draw_childrenEmiiPKNS_8positionENS_9draw_flagEi
liblitehtml.so:_ZN8litehtml7element13find_ancestorERKNS_12css_selectorEbPb
liblitehtml.so:_ZN8litehtml7element13get_base_lineEv
liblitehtml.so:_ZN8litehtml7element13get_line_leftEi
liblitehtml.so:_ZN8litehtml7element13on_lbutton_upEv
liblitehtml.so:_ZN8litehtml7element13on_mouse_overEv
liblitehtml.so:_ZN8litehtml7element13place_elementERKSt10shared_ptrIS0_Ei
liblitehtml.so:_ZN8litehtml7element13render_inlineERKSt10shared_ptrIS0_Ei
liblitehtml.so:_ZN8litehtml7element13set_css_widthERNS_10css_lengthE
liblitehtml.so:_ZN8litehtml7element13update_floatsEiRKSt10shared_ptrIS0_E
liblitehtml.so:_ZN8litehtml7element14add_positionedERKSt10shared_ptrIS0_E
liblitehtml.so:_ZN8litehtml7element14clearRecursiveEv
liblitehtml.so:_ZN8litehtml7element14get_backgroundEb
liblitehtml.so:_ZN8litehtml7element14get_line_rightEii
liblitehtml.so:_ZN8litehtml7element14get_redraw_boxERNS_8positionEii
liblitehtml.so:_ZN8litehtml7element14on_mouse_leaveEv
liblitehtml.so:_ZN8litehtml7element14refresh_stylesEv
liblitehtml.so:_ZN8litehtml7element15draw_backgroundEmiiPKNS_8positionE
liblitehtml.so:_ZN8litehtml7element15is_point_insideEii
liblitehtml.so:_ZN8litehtml7element15on_lbutton_downEv
liblitehtml.so:_ZN8litehtml7element16apply_stylesheetERKNS_3cssE
liblitehtml.so:_ZN8litehtml7element16fetch_positionedEv
liblitehtml.so:_ZN8litehtml7element16get_content_sizeERNS_4sizeEi
liblitehtml.so:_ZN8litehtml7element16get_inline_boxesERSt6vectorINS_8positionESaIS2_EE
liblitehtml.so:_ZN8litehtml7element16parse_attributesEv
liblitehtml.so:_ZN8litehtml7element16set_pseudo_classEPKcb
liblitehtml.so:_ZN8litehtml7element17calc_auto_marginsEi
liblitehtml.so:_ZN8litehtml7element17render_positionedENS_11render_typeE
liblitehtml.so:_ZN8litehtml7element18calc_document_sizeERNS_4sizeEii
liblitehtml.so:_ZN8litehtml7element18find_next_line_topEiii
liblitehtml.so:_ZN8litehtml7element18get_child_by_pointEiiiiNS_9draw_flagEi
liblitehtml.so:_ZN8litehtml7element18get_style_propertyEPKcbS2_
liblitehtml.so:_ZN8litehtml7element19find_styles_changesERSt6vectorINS_8positionESaIS2_EEii
liblitehtml.so:_ZN8litehtml7element19get_line_left_rightEiiRiS1_
liblitehtml.so:_ZN8litehtml7element20apply_relative_shiftEi
liblitehtml.so:_ZN8litehtml7element20apply_vertical_alignEv
liblitehtml.so:_ZN8litehtml7element20get_element_by_pointEiiii
liblitehtml.so:_ZN8litehtml7element20is_last_child_inlineERKSt10shared_ptrIS0_E
liblitehtml.so:_ZN8litehtml7element21draw_stacking_contextEmiiPKNS_8positionEb
liblitehtml.so:_ZN8litehtml7element21find_adjacent_siblingERKSt10shared_ptrIS0_ERKNS_12css_selectorEbPb
liblitehtml.so:_ZN8litehtml7element21get_inline_shift_leftEv
liblitehtml.so:_ZN8litehtml7element22get_inline_shift_rightEv
liblitehtml.so:_ZN8litehtml7element4drawEmiiPKNS_8positionE
liblitehtml.so:_ZN8litehtml7element4initEv
liblitehtml.so:_ZN8litehtml7element6renderEiiib
liblitehtml.so:_ZN8litehtml7element6selectERKNS_12css_selectorEb
liblitehtml.so:_ZN8litehtml7element6selectERKNS_20css_element_selectorEb
liblitehtml.so:_ZN8litehtml7element8get_fontEPNS_12font_metricsE
liblitehtml.so:_ZN8litehtml7element8get_textERNSt7__cxx1112basic_stringIcSt11char_traitsIcESaIcEEE
liblitehtml.so:_ZN8litehtml7element8on_clickEv
liblitehtml.so:_ZN8litehtml7element8set_attrEPKcS2_
liblitehtml.so:_ZN8litehtml7element8set_dataEPKc
liblitehtml.so:_ZN8litehtml7element9add_floatERKSt10shared_ptrIS0_Eii
liblitehtml.so:_ZN8litehtml7element9add_styleERKNS_5styleE
liblitehtml.so:_ZN8litehtml7element9get_colorEPKcbRKNS_9web_colorE
liblitehtml.so:_ZN8litehtml7element9init_fontEv
liblitehtml.so:_ZN8litehtml7element9set_classEPKcb
liblitehtml.so:_ZN8litehtml7elementC1ERKSt10shared_ptrINS_8documentEE
liblitehtml.so:_ZN8litehtml7elementC2ERKSt10shared_ptrINS_8documentEE
liblitehtml.so:_ZN8litehtml7elementD0Ev
liblitehtml.so:_ZN8litehtml7elementD1Ev
liblitehtml.so:_ZN8litehtml7elementD2Ev
liblitehtml.so:_ZN8litehtml7num_cvt14to_greek_lowerB5cxx11Ei
liblitehtml.so:_ZN8litehtml7num_cvt14to_latin_lowerB5cxx11Ei
liblitehtml.so:_ZN8litehtml7num_cvt14to_latin_upperB5cxx11Ei
liblitehtml.so:_ZN8litehtml7num_cvt14to_roman_lowerB5cxx11Ei
liblitehtml.so:_ZN8litehtml7num_cvt14to_roman_upperB5cxx11Ei
liblitehtml.so:_ZN8litehtml8document11create_nodeEPvRSt6vectorISt10shared_ptrINS_7elementEESaIS5_EEb
liblitehtml.so:_ZN8litehtml8document12lang_changedEv
liblitehtml.so:_ZN8litehtml8document13add_fixed_boxERKNS_8positionE
liblitehtml.so:_ZN8litehtml8document13media_changedEv
liblitehtml.so:_ZN8litehtml8document13on_lbutton_upEiiiiRSt6vectorINS_8positionESaIS2_EE
liblitehtml.so:_ZN8litehtml8document13on_mouse_overEiiiiRSt6vectorINS_8positionESaIS2_EE
liblitehtml.so:_ZN8litehtml8document14add_media_listESt10shared_ptrINS_16media_query_listEE
liblitehtml.so:_ZN8litehtml8document14add_stylesheetEPKcS2_S2_
liblitehtml.so:_ZN8litehtml8document14createFromUTF8EPKcPNS_18document_containerEPNS_7contextEPNS_3cssE
liblitehtml.so:_ZN8litehtml8document14create_elementEPKcRKSt3mapINSt7__cxx1112basic_stringIcSt11char_traitsIcESaIcEEES9_St4lessIS9_ESaISt4pairIKS9_S9_EEE
liblitehtml.so:_ZN8litehtml8document14on_mouse_leaveERSt6vectorINS_8positionESaIS2_EE
liblitehtml.so:_ZN8litehtml8document15get_fixed_boxesERSt6vectorINS_8positionESaIS2_EE
liblitehtml.so:_ZN8litehtml8document15on_lbutton_downEiiiiRSt6vectorINS_8positionESaIS2_EE
liblitehtml.so:_ZN8litehtml8document16createFromStringEPKcPNS_18document_containerEPNS_7contextEPNS_3cssE
liblitehtml.so:_ZN8litehtml8document16fix_table_parentERSt10shared_ptrINS_7elementEENS_13style_displayEPKc
liblitehtml.so:_ZN8litehtml8document17fix_tables_layoutEv
liblitehtml.so:_ZN8litehtml8document18fix_table_childrenERSt10shared_ptrINS_7elementEENS_13style_displayEPKc
liblitehtml.so:_ZN8litehtml8document18update_media_listsERKNS_14media_featuresE
liblitehtml.so:_ZN8litehtml8document25append_children_from_utf8ERNS_7elementEPKc
liblitehtml.so:_ZN8litehtml8document27append_children_from_stringERNS_7elementEPKc
liblitehtml.so:_ZN8litehtml8document4drawEmiiPKNS_8positionE
liblitehtml.so:_ZN8litehtml8document6renderEiNS_11render_typeE
liblitehtml.so:_ZN8litehtml8document8add_fontEPKciS2_S2_S2_PNS_12font_metricsE
liblitehtml.so:_ZN8litehtml8document8get_fontEPKciS2_S2_S2_PNS_12font_metricsE
liblitehtml.so:_ZN8litehtml8documentC1EPNS_18document_containerEPNS_7contextE
liblitehtml.so:_ZN8litehtml8documentC2EPNS_18document_containerEPNS_7contextE
liblitehtml.so:_ZN8litehtml8documentD0Ev
liblitehtml.so:_ZN8litehtml8documentD1Ev
liblitehtml.so:_ZN8litehtml8documentD2Ev
liblitehtml.so:_ZN8litehtml8el_breakC1ERKSt10shared_ptrINS_8documentEE
liblitehtml.so:_ZN8litehtml8el_breakC2ERKSt10shared_ptrINS_8documentEE
liblitehtml.so:_ZN8litehtml8el_breakD0Ev
liblitehtml.so:_ZN8litehtml8el_breakD1Ev
liblitehtml.so:_ZN8litehtml8el_breakD2Ev
liblitehtml.so:_ZN8litehtml8el_cdata8get_textERNSt7__cxx1112basic_stringIcSt11char_traitsIcESaIcEEE
liblitehtml.so:_ZN8litehtml8el_cdata8set_dataEPKc
liblitehtml.so:_ZN8litehtml8el_cdataC1ERKSt10shared_ptrINS_8documentEE
liblitehtml.so:_ZN8litehtml8el_cdataC2ERKSt10shared_ptrINS_8documentEE
liblitehtml.so:_ZN8litehtml8el_cdataD0Ev
liblitehtml.so:_ZN8litehtml8el_cdataD1Ev
liblitehtml.so:_ZN8litehtml8el_cdataD2Ev
liblitehtml.so:_ZN8litehtml8el_image12parse_stylesEb
liblitehtml.so:_ZN8litehtml8el_image15calc_max_heightEi
liblitehtml.so:_ZN8litehtml8el_image16get_content_sizeERNS_4sizeEi
liblitehtml.so:_ZN8litehtml8el_image16parse_attributesEv
liblitehtml.so:_ZN8litehtml8el_image4drawEmiiPKNS_8positionE
liblitehtml.so:_ZN8litehtml8el_image6renderEiiib
liblitehtml.so:_ZN8litehtml8el_imageC1ERKSt10shared_ptrINS_8documentEE
liblitehtml.so:_ZN8litehtml8el_imageC2ERKSt10shared_ptrINS_8documentEE
liblitehtml.so:_ZN8litehtml8el_imageD0Ev
liblitehtml.so:_ZN8litehtml8el_imageD1Ev
liblitehtml.so:_ZN8litehtml8el_imageD2Ev
liblitehtml.so:_ZN8litehtml8el_spaceC1EPKcRKSt10shared_ptrINS_8documentEE
liblitehtml.so:_ZN8litehtml8el_spaceC2EPKcRKSt10shared_ptrINS_8documentEE
liblitehtml.so:_ZN8litehtml8el_spaceD0Ev
liblitehtml.so:_ZN8litehtml8el_spaceD1Ev
liblitehtml.so:_ZN8litehtml8el_spaceD2Ev
liblitehtml.so:_ZN8litehtml8el_style11appendChildERKSt10shared_ptrINS_7elementEE
liblitehtml.so:_ZN8litehtml8el_style16parse_attributesEv
liblitehtml.so:_ZN8litehtml8el_styleC1ERKSt10shared_ptrINS_8documentEE
liblitehtml.so:_ZN8litehtml8el_styleC2ERKSt10shared_ptrINS_8documentEE
liblitehtml.so:_ZN8litehtml8el_styleD0Ev
liblitehtml.so:_ZN8litehtml8el_styleD1Ev
liblitehtml.so:_ZN8litehtml8el_styleD2Ev
liblitehtml.so:_ZN8litehtml8el_table11appendChildERKSt10shared_ptrINS_7elementEE
liblitehtml.so:_ZN8litehtml8el_table12parse_stylesEb
liblitehtml.so:_ZN8litehtml8el_table16parse_attributesEv
liblitehtml.so:_ZN8litehtml8el_tableC1ERKSt10shared_ptrINS_8documentEE
liblitehtml.so:_ZN8litehtml8el_tableC2ERKSt10shared_ptrINS_8documentEE
liblitehtml.so:_ZN8litehtml8el_tableD0Ev
liblitehtml.so:_ZN8litehtml8el_tableD1Ev
liblitehtml.so:_ZN8litehtml8el_tableD2Ev
liblitehtml.so:_ZN8litehtml8el_title16parse_attributesEv
liblitehtml.so:_ZN8litehtml8el_titleC1ERKSt10shared_ptrINS_8documentEE
liblitehtml.so:_ZN8litehtml8el_titleC2ERKSt10shared_ptrINS_8documentEE
liblitehtml.so:_ZN8litehtml8el_titleD0Ev
liblitehtml.so:_ZN8litehtml8el_titleD1Ev
liblitehtml.so:_ZN8litehtml8el_titleD2Ev
liblitehtml.so:_ZN8litehtml8html_tag10get_cursorEv
liblitehtml.so:_ZN8litehtml8html_tag10render_boxEiiib
liblitehtml.so:_ZN8litehtml8html_tag10select_allERKNS_12css_selectorE
liblitehtml.so:_ZN8litehtml8html_tag10select_allERKNS_12css_selectorERSt6vectorISt10shared_ptrINS_7elementEESaIS7_EE
liblitehtml.so:_ZN8litehtml8html_tag10select_allERKNSt7__cxx1112basic_stringIcSt11char_traitsIcESaIcEEE
liblitehtml.so:_ZN8litehtml8html_tag10select_oneERKNS_12css_selectorE
liblitehtml.so:_ZN8litehtml8html_tag10select_oneERKNSt7__cxx1112basic_stringIcSt11char_traitsIcESaIcEEE
liblitehtml.so:_ZN8litehtml8html_tag11appendChildERKSt10shared_ptrINS_7elementEE
liblitehtml.so:_ZN8litehtml8html_tag11removeChildERKSt10shared_ptrINS_7elementEE
liblitehtml.so:_ZN8litehtml8html_tag11set_tagNameEPKc
liblitehtml.so:_ZN8litehtml8html_tag12find_siblingERKSt10shared_ptrINS_7elementEERKNS_12css_selectorEbPb
liblitehtml.so:_ZN8litehtml8html_tag12parse_stylesEb
liblitehtml.so:_ZN8litehtml8html_tag12render_tableEiiib
liblitehtml.so:_ZN8litehtml8html_tag13calc_outlinesEi
liblitehtml.so:_ZN8litehtml8html_tag13draw_childrenEmiiPKNS_8positionENS_9draw_flagEi
liblitehtml.so:_ZN8litehtml8html_tag13find_ancestorERKNS_12css_selectorEbPb
liblitehtml.so:_ZN8litehtml8html_tag13get_base_lineEv
liblitehtml.so:_ZN8litehtml8html_tag13get_line_leftEi
liblitehtml.so:_ZN8litehtml8html_tag13on_lbutton_upEv
liblitehtml.so:_ZN8litehtml8html_tag13on_mouse_overEv
liblitehtml.so:_ZN8litehtml8html_tag13place_elementERKSt10shared_ptrINS_7elementEEi
liblitehtml.so:_ZN8litehtml8html_tag13render_inlineERKSt10shared_ptrINS_7elementEEi
liblitehtml.so:_ZN8litehtml8html_tag13set_css_widthERNS_10css_lengthE
liblitehtml.so:_ZN8litehtml8html_tag13update_floatsEiRKSt10shared_ptrINS_7elementEE
liblitehtml.so:_ZN8litehtml8html_tag14add_positionedERKSt10shared_ptrINS_7elementEE
liblitehtml.so:_ZN8litehtml8html_tag14clearRecursiveEv
liblitehtml.so:_ZN8litehtml8html_tag14fix_line_widthEiNS_13element_floatE
liblitehtml.so:_ZN8litehtml8html_tag14get_backgroundEb
liblitehtml.so:_ZN8litehtml8html_tag14get_line_rightEii
liblitehtml.so:_ZN8litehtml8html_tag14get_redraw_boxERNS_8positionEii
liblitehtml.so:_ZN8litehtml8html_tag14on_mouse_leaveEv
liblitehtml.so:_ZN8litehtml8html_tag14refresh_stylesEv
liblitehtml.so:_ZN8litehtml8html_tag15draw_backgroundEmiiPKNS_8positionE
liblitehtml.so:_ZN8litehtml8html_tag15finish_last_boxEb
liblitehtml.so:_ZN8litehtml8html_tag15on_lbutton_downEv
liblitehtml.so:_ZN8litehtml8html_tag16apply_stylesheetERKNS_3cssE
liblitehtml.so:_ZN8litehtml8html_tag16draw_list_markerEmRKNS_8positionE
liblitehtml.so:_ZN8litehtml8html_tag16fetch_positionedEv
liblitehtml.so:_ZN8litehtml8html_tag16get_content_sizeERNS_4sizeEi
liblitehtml.so:_ZN8litehtml8html_tag16get_inline_boxesERSt6vectorINS_8positionESaIS2_EE
liblitehtml.so:_ZN8litehtml8html_tag16parse_attributesEv
liblitehtml.so:_ZN8litehtml8html_tag16parse_backgroundEv
liblitehtml.so:_ZN8litehtml8html_tag16set_pseudo_classEPKcb
liblitehtml.so:_ZN8litehtml8html_tag17calc_auto_marginsEi
liblitehtml.so:_ZN8litehtml8html_tag17draw_children_boxEmiiPKNS_8positionENS_9draw_flagEi
liblitehtml.so:_ZN8litehtml8html_tag17get_element_afterEv
liblitehtml.so:_ZN8litehtml8html_tag17render_positionedENS_11render_typeE
liblitehtml.so:_ZN8litehtml8html_tag18calc_document_sizeERNS_4sizeEii
liblitehtml.so:_ZN8litehtml8html_tag18find_next_line_topEiii
liblitehtml.so:_ZN8litehtml8html_tag18get_child_by_pointEiiiiNS_9draw_flagEi
liblitehtml.so:_ZN8litehtml8html_tag18get_element_beforeEv
liblitehtml.so:_ZN8litehtml8html_tag18get_style_propertyEPKcbS2_
liblitehtml.so:_ZN8litehtml8html_tag19draw_children_tableEmiiPKNS_8positionENS_9draw_flagEi
liblitehtml.so:_ZN8litehtml8html_tag19find_styles_changesERSt6vectorINS_8positionESaIS2_EEii
liblitehtml.so:_ZN8litehtml8html_tag19get_line_left_rightEiiRiS1_
liblitehtml.so:_ZN8litehtml8html_tag19remove_before_afterEv
liblitehtml.so:_ZN8litehtml8html_tag20apply_vertical_alignEv
liblitehtml.so:_ZN8litehtml8html_tag20get_element_by_pointEiiii
liblitehtml.so:_ZN8litehtml8html_tag20get_list_marker_textB5cxx11Ei
liblitehtml.so:_ZN8litehtml8html_tag20is_last_child_inlineERKSt10shared_ptrINS_7elementEE
liblitehtml.so:_ZN8litehtml8html_tag21draw_stacking_contextEmiiPKNS_8positionEb
liblitehtml.so:_ZN8litehtml8html_tag21find_adjacent_siblingERKSt10shared_ptrINS_7elementEERKNS_12css_selectorEbPb
liblitehtml.so:_ZN8litehtml8html_tag21init_background_paintENS_8positionERNS_16background_paintEPKNS_10backgroundE
liblitehtml.so:_ZN8litehtml8html_tag22parse_nth_child_paramsENSt7__cxx1112basic_stringIcSt11char_traitsIcESaIcEEERiS7_
liblitehtml.so:_ZN8litehtml8html_tag4drawEmiiPKNS_8positionE
liblitehtml.so:_ZN8litehtml8html_tag4initEv
liblitehtml.so:_ZN8litehtml8html_tag6renderEiiib
liblitehtml.so:_ZN8litehtml8html_tag6selectERKNS_12css_selectorEb
liblitehtml.so:_ZN8litehtml8html_tag6selectERKNS_20css_element_selectorEb
liblitehtml.so:_ZN8litehtml8html_tag7new_boxERKSt10shared_ptrINS_7elementEEiRNS_12line_contextE
liblitehtml.so:_ZN8litehtml8html_tag8get_fontEPNS_12font_metricsE
liblitehtml.so:_ZN8litehtml8html_tag8get_textERNSt7__cxx1112basic_stringIcSt11char_traitsIcESaIcEEE
liblitehtml.so:_ZN8litehtml8html_tag8on_clickEv
liblitehtml.so:_ZN8litehtml8html_tag8set_attrEPKcS2_
liblitehtml.so:_ZN8litehtml8html_tag8set_dataEPKc
liblitehtml.so:_ZN8litehtml8html_tag9add_floatERKSt10shared_ptrINS_7elementEEii
liblitehtml.so:_ZN8litehtml8html_tag9add_styleERKNS_5styleE
liblitehtml.so:_ZN8litehtml8html_tag9init_fontEv
liblitehtml.so:_ZN8litehtml8html_tag9set_classEPKcb
liblitehtml.so:_ZN8litehtml8html_tagC1ERKSt10shared_ptrINS_8documentEE
liblitehtml.so:_ZN8litehtml8html_tagC2ERKSt10shared_ptrINS_8documentEE
liblitehtml.so:_ZN8litehtml8html_tagD0Ev
liblitehtml.so:_ZN8litehtml8html_tagD1Ev
liblitehtml.so:_ZN8litehtml8html_tagD2Ev
liblitehtml.so:_ZN8litehtml8line_box10top_marginEv
liblitehtml.so:_ZN8litehtml8line_box11add_elementERKSt10shared_ptrINS_7elementEE
liblitehtml.so:_ZN8litehtml8line_box12get_elementsERSt6vectorISt10shared_ptrINS_7elementEESaIS4_EE
liblitehtml.so:_ZN8litehtml8line_box13bottom_marginEv
liblitehtml.so:_ZN8litehtml8line_box13is_break_onlyEv
liblitehtml.so:_ZN8litehtml8line_box15have_last_spaceEv
liblitehtml.so:_ZN8litehtml8line_box5widthEv
liblitehtml.so:_ZN8litehtml8line_box6finishEb
liblitehtml.so:_ZN8litehtml8line_box6heightEv
liblitehtml.so:_ZN8litehtml8line_box7y_shiftEi
liblitehtml.so:_ZN8litehtml8line_box8baselineEv
liblitehtml.so:_ZN8litehtml8line_box8can_holdERKSt10shared_ptrINS_7elementEENS_11white_spaceE
liblitehtml.so:_ZN8litehtml8line_box8get_typeEv
liblitehtml.so:_ZN8litehtml8line_box8is_emptyEv
liblitehtml.so:_ZN8litehtml8line_box9new_widthEiiRSt6vectorISt10shared_ptrINS_7elementEESaIS4_EE
liblitehtml.so:_ZN8litehtml9block_box10top_marginEv
liblitehtml.so:_ZN8litehtml9block_box11add_elementERKSt10shared_ptrINS_7elementEE
liblitehtml.so:_ZN8litehtml9block_box12get_elementsERSt6vectorISt10shared_ptrINS_7elementEESaIS4_EE
liblitehtml.so:_ZN8litehtml9block_box13bottom_marginEv
liblitehtml.so:_ZN8litehtml9block_box5widthEv
liblitehtml.so:_ZN8litehtml9block_box6finishEb
liblitehtml.so:_ZN8litehtml9block_box6heightEv
liblitehtml.so:_ZN8litehtml9block_box7y_shiftEi
liblitehtml.so:_ZN8litehtml9block_box8baselineEv
liblitehtml.so:_ZN8litehtml9block_box8can_holdERKSt10shared_ptrINS_7elementEENS_11white_spaceE
liblitehtml.so:_ZN8litehtml9block_box8get_typeEv
liblitehtml.so:_ZN8litehtml9block_box8is_emptyEv
liblitehtml.so:_ZN8litehtml9block_box9new_widthEiiRSt6vectorISt10shared_ptrINS_7elementEESaIS4_EE
liblitehtml.so:_ZN8litehtml9el_anchor16apply_stylesheetERKNS_3cssE
liblitehtml.so:_ZN8litehtml9el_anchor8on_clickEv
liblitehtml.so:_ZN8litehtml9el_anchorC1ERKSt10shared_ptrINS_8documentEE
liblitehtml.so:_ZN8litehtml9el_anchorC2ERKSt10shared_ptrINS_8documentEE
liblitehtml.so:_ZN8litehtml9el_anchorD0Ev
liblitehtml.so:_ZN8litehtml9el_anchorD1Ev
liblitehtml.so:_ZN8litehtml9el_anchorD2Ev
liblitehtml.so:_ZN8litehtml9el_script11appendChildERKSt10shared_ptrINS_7elementEE
liblitehtml.so:_ZN8litehtml9el_script16parse_attributesEv
liblitehtml.so:_ZN8litehtml9el_scriptC1ERKSt10shared_ptrINS_8documentEE
liblitehtml.so:_ZN8litehtml9el_scriptC2ERKSt10shared_ptrINS_8documentEE
liblitehtml.so:_ZN8litehtml9el_scriptD0Ev
liblitehtml.so:_ZN8litehtml9el_scriptD1Ev
liblitehtml.so:_ZN8litehtml9el_scriptD2Ev
liblitehtml.so:_ZN8litehtml9web_color11from_stringEPKcPNS_18document_containerE
liblitehtml.so:_ZN8litehtml9web_color12resolve_nameB5cxx11EPKcPNS_18document_containerE
liblitehtml.so:_ZN8litehtml9web_color8is_colorEPKc
liblitehtml.so:_ZNK8litehtml11media_query5checkERKNS_14media_featuresE
liblitehtml.so:_ZNK8litehtml12css_selector16add_media_to_docEPNS_8documentE
liblitehtml.so:_ZNK8litehtml22media_query_expression5checkERKNS_14media_featuresE
liblitehtml.so:_ZNK8litehtml7el_body7is_bodyEv
liblitehtml.so:_ZNK8litehtml7el_text11get_displayEv
liblitehtml.so:_ZNK8litehtml7el_text11line_heightEv
liblitehtml.so:_ZNK8litehtml7el_text15get_css_offsetsEv
liblitehtml.so:_ZNK8litehtml7el_text15get_white_spaceEv
liblitehtml.so:_ZNK8litehtml7el_text20get_element_positionEPNS_11css_offsetsE
liblitehtml.so:_ZNK8litehtml7element10calc_widthEi
liblitehtml.so:_ZNK8litehtml7element10get_zindexEv
liblitehtml.so:_ZNK8litehtml7element11get_css_topEv
liblitehtml.so:_ZNK8litehtml7element11get_displayEv
liblitehtml.so:_ZNK8litehtml7element11get_tagNameEv
liblitehtml.so:_ZNK8litehtml7element11is_ancestorERKSt10shared_ptrIS0_E
liblitehtml.so:_ZNK8litehtml7element11is_replacedEv
liblitehtml.so:_ZNK8litehtml7element11line_heightEv
liblitehtml.so:_ZNK8litehtml7element12get_css_leftEv
liblitehtml.so:_ZNK8litehtml7element12get_overflowEv
liblitehtml.so:_ZNK8litehtml7element12is_nth_childERKSt10shared_ptrIS0_Eiib
liblitehtml.so:_ZNK8litehtml7element13get_css_rightEv
liblitehtml.so:_ZNK8litehtml7element13get_css_widthEv
liblitehtml.so:_ZNK8litehtml7element13get_font_sizeEv
liblitehtml.so:_ZNK8litehtml7element13get_placementEv
liblitehtml.so:_ZNK8litehtml7element13is_inline_boxEv
liblitehtml.so:_ZNK8litehtml7element13is_only_childERKSt10shared_ptrIS0_Eb
liblitehtml.so:_ZNK8litehtml7element14get_css_bottomEv
liblitehtml.so:_ZNK8litehtml7element14get_css_heightEv
liblitehtml.so:_ZNK8litehtml7element14get_visibilityEv
liblitehtml.so:_ZNK8litehtml7element14is_white_spaceEv
liblitehtml.so:_ZNK8litehtml7element15get_css_offsetsEv
liblitehtml.so:_ZNK8litehtml7element15get_white_spaceEv
liblitehtml.so:_ZNK8litehtml7element16is_floats_holderEv
liblitehtml.so:_ZNK8litehtml7element17get_floats_heightENS_13element_floatE
liblitehtml.so:_ZNK8litehtml7element17have_inline_childEv
liblitehtml.so:_ZNK8litehtml7element17is_nth_last_childERKSt10shared_ptrIS0_Eiib
liblitehtml.so:_ZNK8litehtml7element18get_children_countEv
liblitehtml.so:_ZNK8litehtml7element18get_vertical_alignEv
liblitehtml.so:_ZNK8litehtml7element19collapse_top_marginEv
liblitehtml.so:_ZNK8litehtml7element20get_element_positionEPNS_11css_offsetsE
liblitehtml.so:_ZNK8litehtml7element21get_predefined_heightERi
liblitehtml.so:_ZNK8litehtml7element21is_first_child_inlineERKSt10shared_ptrIS0_E
liblitehtml.so:_ZNK8litehtml7element22collapse_bottom_marginEv
liblitehtml.so:_ZNK8litehtml7element22get_left_floats_heightEv
liblitehtml.so:_ZNK8litehtml7element23get_right_floats_heightEv
liblitehtml.so:_ZNK8litehtml7element7is_bodyEv
liblitehtml.so:_ZNK8litehtml7element8get_attrEPKcS2_
liblitehtml.so:_ZNK8litehtml7element8is_breakEv
liblitehtml.so:_ZNK8litehtml7element9get_childEi
liblitehtml.so:_ZNK8litehtml7element9get_clearEv
liblitehtml.so:_ZNK8litehtml7element9get_floatEv
liblitehtml.so:_ZNK8litehtml8document5widthEv
liblitehtml.so:_ZNK8litehtml8document6heightEv
liblitehtml.so:_ZNK8litehtml8document9cvt_unitsEPKciPb
liblitehtml.so:_ZNK8litehtml8document9cvt_unitsERNS_10css_lengthEii
liblitehtml.so:_ZNK8litehtml8el_break8is_breakEv
liblitehtml.so:_ZNK8litehtml8el_image11is_replacedEv
liblitehtml.so:_ZNK8litehtml8el_image11line_heightEv
liblitehtml.so:_ZNK8litehtml8el_space14is_white_spaceEv
liblitehtml.so:_ZNK8litehtml8el_space8is_breakEv
liblitehtml.so:_ZNK8litehtml8el_style11get_tagNameEv
liblitehtml.so:_ZNK8litehtml8html_tag10get_zindexEv
liblitehtml.so:_ZNK8litehtml8html_tag11get_css_topEv
liblitehtml.so:_ZNK8litehtml8html_tag11get_displayEv
liblitehtml.so:_ZNK8litehtml8html_tag11get_tagNameEv
liblitehtml.so:_ZNK8litehtml8html_tag11is_replacedEv
liblitehtml.so:_ZNK8litehtml8html_tag11line_heightEv
liblitehtml.so:_ZNK8litehtml8html_tag12get_css_leftEv
liblitehtml.so:_ZNK8litehtml8html_tag12get_overflowEv
liblitehtml.so:_ZNK8litehtml8html_tag12is_nth_childERKSt10shared_ptrINS_7elementEEiib
liblitehtml.so:_ZNK8litehtml8html_tag13get_css_rightEv
liblitehtml.so:_ZNK8litehtml8html_tag13get_css_widthEv
liblitehtml.so:_ZNK8litehtml8html_tag13get_font_sizeEv
liblitehtml.so:_ZNK8litehtml8html_tag13is_only_childERKSt10shared_ptrINS_7elementEEb
liblitehtml.so:_ZNK8litehtml8html_tag14get_css_bottomEv
liblitehtml.so:_ZNK8litehtml8html_tag14get_css_heightEv
liblitehtml.so:_ZNK8litehtml8html_tag14get_visibilityEv
liblitehtml.so:_ZNK8litehtml8html_tag14is_white_spaceEv
liblitehtml.so:_ZNK8litehtml8html_tag15get_cleared_topERKSt10shared_ptrINS_7elementEEi
liblitehtml.so:_ZNK8litehtml8html_tag15get_css_offsetsEv
liblitehtml.so:_ZNK8litehtml8html_tag15get_white_spaceEv
liblitehtml.so:_ZNK8litehtml8html_tag16is_floats_holderEv
liblitehtml.so:_ZNK8litehtml8html_tag17get_floats_heightENS_13element_floatE
liblitehtml.so:_ZNK8litehtml8html_tag17have_inline_childEv
liblitehtml.so:_ZNK8litehtml8html_tag17is_nth_last_childERKSt10shared_ptrINS_7elementEEiib
liblitehtml.so:_ZNK8litehtml8html_tag18get_children_countEv
liblitehtml.so:_ZNK8litehtml8html_tag18get_vertical_alignEv
liblitehtml.so:_ZNK8litehtml8html_tag20get_element_positionEPNS_11css_offsetsE
liblitehtml.so:_ZNK8litehtml8html_tag21is_first_child_inlineERKSt10shared_ptrINS_7elementEE
liblitehtml.so:_ZNK8litehtml8html_tag22get_left_floats_heightEv
liblitehtml.so:_ZNK8litehtml8html_tag23get_right_floats_heightEv
liblitehtml.so:_ZNK8litehtml8html_tag7is_bodyEv
liblitehtml.so:_ZNK8litehtml8html_tag8get_attrEPKcS2_
liblitehtml.so:_ZNK8litehtml8html_tag8is_breakEv
liblitehtml.so:_ZNK8litehtml8html_tag9get_childEi
liblitehtml.so:_ZNK8litehtml8html_tag9get_clearEv
liblitehtml.so:_ZNK8litehtml8html_tag9get_floatEv
liblitehtml.so:_ZNK8litehtml9el_script11get_tagNameEv
